target datalayout = "e-m:e-p270:32:32-p271:32:32-p272:64:64-i64:64-i128:128-f80:128-n8:16:32:64-S128"
target triple = "x86_64-pc-linux-gnu"

%struct.loopargs_st = type { ptr, ptr, ptr, ptr, ptr, ptr, ptr, [16 x i8], i64, i64, i64, [7 x ptr], [7 x ptr], [7 x ptr], [7 x ptr], [2 x ptr], [2 x ptr], [22 x ptr], [22 x ptr], [24 x ptr], [2 x ptr], [2 x ptr], [1 x ptr], [1 x ptr], [1 x ptr], ptr, ptr, [24 x i64], [5 x ptr], ptr, ptr, ptr, ptr, [111 x ptr], [111 x ptr], [111 x ptr], [111 x i64], [111 x i64], [111 x ptr], [111 x ptr], [111 x ptr], [111 x ptr], [111 x ptr], [111 x ptr], [111 x i64], [111 x i64], [111 x ptr] }

; Function Attrs: nounwind uwtable
define internal void @mac_teardown(ptr noundef %0, ptr noundef %1, i32 noundef %2) #0 {
  %4 = alloca ptr, align 8
  %5 = alloca ptr, align 8
  %6 = alloca i32, align 4
  %7 = alloca i32, align 4
  store ptr %0, ptr %4, align 8, !tbaa !245
  store ptr %1, ptr %5, align 8, !tbaa !37
  store i32 %2, ptr %6, align 4, !tbaa !4
  call void @llvm.lifetime.start.p0(i64 4, ptr %7) #11
  store i32 0, ptr %7, align 4, !tbaa !4
  br label %8

8:                                                ; preds = %19, %3
  %9 = load i32, ptr %7, align 4, !tbaa !4
  %10 = load i32, ptr %6, align 4, !tbaa !4
  %11 = icmp ult i32 %9, %10
  br i1 %11, label %12, label %22

12:                                               ; preds = %8
  %13 = load ptr, ptr %5, align 8, !tbaa !37
  %14 = load i32, ptr %7, align 4, !tbaa !4
  %15 = zext i32 %14 to i64
  %16 = getelementptr inbounds nuw %struct.loopargs_st, ptr %13, i64 %15
  %17 = getelementptr inbounds nuw %struct.loopargs_st, ptr %16, i32 0, i32 32
  %18 = load ptr, ptr %17, align 8, !tbaa !136
  call void @EVP_MAC_CTX_free(ptr noundef %18)
  br label %19

19:                                               ; preds = %12
  %20 = load i32, ptr %7, align 4, !tbaa !4
  %21 = add i32 %20, 1
  store i32 %21, ptr %7, align 4, !tbaa !4
  br label %8, !llvm.loop !248

22:                                               ; preds = %8
  %23 = load ptr, ptr %4, align 8, !tbaa !245
  %24 = load ptr, ptr %23, align 8, !tbaa !42
  call void @EVP_MAC_free(ptr noundef %24)
  %25 = load ptr, ptr %4, align 8, !tbaa !245
  store ptr null, ptr %25, align 8, !tbaa !42
  call void @llvm.lifetime.end.p0(i64 4, ptr %7) #11
  ret void
}