; Function Attrs: nounwind uwtable
define internal fastcc void @mac_teardown(ptr noundef nonnull captures(none) %0, ptr noundef readonly captures(none) %1, i32 noundef range(i32 0, 100000) %2) unnamed_addr #0 {
  %.not = icmp eq i32 %2, 0
  br i1 %.not, label %._crit_edge, label %.lr.ph.preheader

.lr.ph.preheader:                                 ; preds = %3
  %wide.trip.count = zext nneg i32 %2 to i64
  br label %.lr.ph

.lr.ph:                                           ; preds = %.lr.ph.preheader, %.lr.ph
  %indvars.iv = phi i64 [ 0, %.lr.ph.preheader ], [ %indvars.iv.next, %.lr.ph ]
  %4 = getelementptr inbounds nuw %struct.loopargs_st, ptr %1, i64 %indvars.iv, i32 32
  %5 = load ptr, ptr %4, align 8, !tbaa !98
  tail call void @EVP_MAC_CTX_free(ptr noundef %5) #14
  %indvars.iv.next = add nuw nsw i64 %indvars.iv, 1
  %exitcond.not = icmp eq i64 %indvars.iv.next, %wide.trip.count
  br i1 %exitcond.not, label %._crit_edge, label %.lr.ph, !llvm.loop !198

._crit_edge:                                      ; preds = %.lr.ph, %3
  %6 = load ptr, ptr %0, align 8, !tbaa !11
  tail call void @EVP_MAC_free(ptr noundef %6) #14
  store ptr null, ptr %0, align 8, !tbaa !11
  ret void
}